target datalayout = "e-m:e-p270:32:32-p271:32:32-p272:64:64-i64:64-i128:128-f80:128-n8:16:32:64-S128"
target triple = "x86_64-pc-linux-gnu"

; Function Attrs: nounwind uwtable
define internal i32 @name_parse(ptr noundef %0, i32 noundef %1, ptr noundef %2, ptr noundef %3, i32 noundef %4) #0 {
  %6 = alloca i32, align 4
  %7 = alloca ptr, align 8
  %8 = alloca i32, align 4
  %9 = alloca ptr, align 8
  %10 = alloca ptr, align 8
  %11 = alloca i32, align 4
  %12 = alloca i32, align 4
  %13 = alloca i32, align 4
  %14 = alloca i32, align 4
  %15 = alloca ptr, align 8
  %16 = alloca ptr, align 8
  %17 = alloca i8, align 1
  %18 = alloca i32, align 4
  %19 = alloca i8, align 1
  store ptr %0, ptr %7, align 8
  store i32 %1, ptr %8, align 4
  store ptr %2, ptr %9, align 8
  store ptr %3, ptr %10, align 8
  store i32 %4, ptr %11, align 4
  call void @llvm.lifetime.start.p0(i64 4, ptr %12) #10
  store i32 -1, ptr %12, align 4
  call void @llvm.lifetime.start.p0(i64 4, ptr %13) #10
  %20 = load ptr, ptr %9, align 8
  %21 = load i32, ptr %20, align 4
  store i32 %21, ptr %13, align 4
  call void @llvm.lifetime.start.p0(i64 4, ptr %14) #10
  store i32 0, ptr %14, align 4
  call void @llvm.lifetime.start.p0(i64 8, ptr %15) #10
  %22 = load ptr, ptr %10, align 8
  store ptr %22, ptr %15, align 8
  call void @llvm.lifetime.start.p0(i64 8, ptr %16) #10
  %23 = load ptr, ptr %10, align 8
  %24 = load i32, ptr %11, align 4
  %25 = sext i32 %24 to i64
  %26 = getelementptr inbounds i8, ptr %23, i64 %25
  store ptr %26, ptr %16, align 8
  br label %27

27:                                               ; preds = %146, %144, %5
  call void @llvm.lifetime.start.p0(i64 1, ptr %17) #10
  br label %28

28:                                               ; preds = %27
  %29 = load i32, ptr %13, align 4
  %30 = load i32, ptr %8, align 4
  %31 = icmp sge i32 %29, %30
  br i1 %31, label %32, label %33

32:                                               ; preds = %28
  store i32 6, ptr %18, align 4
  br label %144

33:                                               ; preds = %28
  %34 = load ptr, ptr %7, align 8
  %35 = load i32, ptr %13, align 4
  %36 = add nsw i32 %35, 1
  store i32 %36, ptr %13, align 4
  %37 = sext i32 %35 to i64
  %38 = getelementptr inbounds i8, ptr %34, i64 %37
  %39 = load i8, ptr %38, align 1
  store i8 %39, ptr %17, align 1
  br label %40

40:                                               ; preds = %33
  br label %41

41:                                               ; preds = %40
  %42 = load i8, ptr %17, align 1
  %43 = icmp ne i8 %42, 0
  br i1 %43, label %45, label %44

44:                                               ; preds = %41
  store i32 2, ptr %18, align 4
  br label %144

45:                                               ; preds = %41
  %46 = load i8, ptr %17, align 1
  %47 = zext i8 %46 to i32
  %48 = and i32 %47, 192
  %49 = icmp ne i32 %48, 0
  br i1 %49, label %50, label %92

50:                                               ; preds = %45
  call void @llvm.lifetime.start.p0(i64 1, ptr %19) #10
  br label %51

51:                                               ; preds = %50
  %52 = load i32, ptr %13, align 4
  %53 = load i32, ptr %8, align 4
  %54 = icmp sge i32 %52, %53
  br i1 %54, label %55, label %56

55:                                               ; preds = %51
  store i32 6, ptr %18, align 4
  br label %91

56:                                               ; preds = %51
  %57 = load ptr, ptr %7, align 8
  %58 = load i32, ptr %13, align 4
  %59 = add nsw i32 %58, 1
  store i32 %59, ptr %13, align 4
  %60 = sext i32 %58 to i64
  %61 = getelementptr inbounds i8, ptr %57, i64 %60
  %62 = load i8, ptr %61, align 1
  store i8 %62, ptr %19, align 1
  br label %63

63:                                               ; preds = %56
  br label %64

64:                                               ; preds = %63
  %65 = load i32, ptr %12, align 4
  %66 = icmp slt i32 %65, 0
  br i1 %66, label %67, label %69

67:                                               ; preds = %64
  %68 = load i32, ptr %13, align 4
  store i32 %68, ptr %12, align 4
  br label %69

69:                                               ; preds = %67, %64
  %70 = load i8, ptr %17, align 1
  %71 = zext i8 %70 to i32
  %72 = and i32 %71, 63
  %73 = shl i32 %72, 8
  %74 = load i8, ptr %19, align 1
  %75 = zext i8 %74 to i32
  %76 = add nsw i32 %73, %75
  store i32 %76, ptr %13, align 4
  %77 = load i32, ptr %13, align 4
  %78 = icmp slt i32 %77, 0
  br i1 %78, label %83, label %79

79:                                               ; preds = %69
  %80 = load i32, ptr %13, align 4
  %81 = load i32, ptr %8, align 4
  %82 = icmp sge i32 %80, %81
  br i1 %82, label %83, label %84

83:                                               ; preds = %79, %69
  store i32 -1, ptr %6, align 4
  store i32 1, ptr %18, align 4
  br label %91

84:                                               ; preds = %79
  %85 = load i32, ptr %14, align 4
  %86 = add nsw i32 %85, 1
  store i32 %86, ptr %14, align 4
  %87 = load i32, ptr %8, align 4
  %88 = icmp sgt i32 %86, %87
  br i1 %88, label %89, label %90

89:                                               ; preds = %84
  store i32 -1, ptr %6, align 4
  store i32 1, ptr %18, align 4
  br label %91

90:                                               ; preds = %84
  store i32 3, ptr %18, align 4
  br label %91

91:                                               ; preds = %55, %90, %89, %83
  call void @llvm.lifetime.end.p0(i64 1, ptr %19) #10
  br label %144

92:                                               ; preds = %45
  %93 = load i8, ptr %17, align 1
  %94 = zext i8 %93 to i32
  %95 = icmp sgt i32 %94, 63
  br i1 %95, label %96, label %97

96:                                               ; preds = %92
  store i32 -1, ptr %6, align 4
  store i32 1, ptr %18, align 4
  br label %144

97:                                               ; preds = %92
  %98 = load ptr, ptr %15, align 8
  %99 = load ptr, ptr %10, align 8
  %100 = icmp ne ptr %98, %99
  br i1 %100, label %101, label %110

101:                                              ; preds = %97
  %102 = load ptr, ptr %15, align 8
  %103 = getelementptr inbounds i8, ptr %102, i64 1
  %104 = load ptr, ptr %16, align 8
  %105 = icmp uge ptr %103, %104
  br i1 %105, label %106, label %107

106:                                              ; preds = %101
  store i32 -1, ptr %6, align 4
  store i32 1, ptr %18, align 4
  br label %144

107:                                              ; preds = %101
  %108 = load ptr, ptr %15, align 8
  %109 = getelementptr inbounds nuw i8, ptr %108, i32 1
  store ptr %109, ptr %15, align 8
  store i8 46, ptr %108, align 1
  br label %110

110:                                              ; preds = %107, %97
  %111 = load ptr, ptr %15, align 8
  %112 = load i8, ptr %17, align 1
  %113 = zext i8 %112 to i32
  %114 = sext i32 %113 to i64
  %115 = getelementptr inbounds i8, ptr %111, i64 %114
  %116 = load ptr, ptr %16, align 8
  %117 = icmp uge ptr %115, %116
  br i1 %117, label %118, label %119

118:                                              ; preds = %110
  store i32 -1, ptr %6, align 4
  store i32 1, ptr %18, align 4
  br label %144

119:                                              ; preds = %110
  %120 = load i32, ptr %13, align 4
  %121 = load i8, ptr %17, align 1
  %122 = zext i8 %121 to i32
  %123 = add nsw i32 %120, %122
  %124 = load i32, ptr %8, align 4
  %125 = icmp sgt i32 %123, %124
  br i1 %125, label %126, label %127

126:                                              ; preds = %119
  store i32 -1, ptr %6, align 4
  store i32 1, ptr %18, align 4
  br label %144

127:                                              ; preds = %119
  %128 = load ptr, ptr %15, align 8
  %129 = load ptr, ptr %7, align 8
  %130 = load i32, ptr %13, align 4
  %131 = sext i32 %130 to i64
  %132 = getelementptr inbounds i8, ptr %129, i64 %131
  %133 = load i8, ptr %17, align 1
  %134 = zext i8 %133 to i64
  call void @llvm.memcpy.p0.p0.i64(ptr align 1 %128, ptr align 1 %132, i64 %134, i1 false)
  %135 = load i8, ptr %17, align 1
  %136 = zext i8 %135 to i32
  %137 = load ptr, ptr %15, align 8
  %138 = sext i32 %136 to i64
  %139 = getelementptr inbounds i8, ptr %137, i64 %138
  store ptr %139, ptr %15, align 8
  %140 = load i8, ptr %17, align 1
  %141 = zext i8 %140 to i32
  %142 = load i32, ptr %13, align 4
  %143 = add nsw i32 %142, %141
  store i32 %143, ptr %13, align 4
  store i32 0, ptr %18, align 4
  br label %144

144:                                              ; preds = %32, %127, %126, %118, %106, %96, %91, %44
  call void @llvm.lifetime.end.p0(i64 1, ptr %17) #10
  %145 = load i32, ptr %18, align 4
  switch i32 %145, label %164 [
    i32 0, label %146
    i32 2, label %147
    i32 3, label %27
    i32 6, label %163
  ]

146:                                              ; preds = %144
  br label %27

147:                                              ; preds = %144
  %148 = load ptr, ptr %15, align 8
  %149 = load ptr, ptr %16, align 8
  %150 = icmp uge ptr %148, %149
  br i1 %150, label %151, label %152

151:                                              ; preds = %147
  store i32 -1, ptr %6, align 4
  store i32 1, ptr %18, align 4
  br label %164

152:                                              ; preds = %147
  %153 = load ptr, ptr %15, align 8
  store i8 0, ptr %153, align 1
  %154 = load i32, ptr %12, align 4
  %155 = icmp slt i32 %154, 0
  br i1 %155, label %156, label %159

156:                                              ; preds = %152
  %157 = load i32, ptr %13, align 4
  %158 = load ptr, ptr %9, align 8
  store i32 %157, ptr %158, align 4
  br label %162

159:                                              ; preds = %152
  %160 = load i32, ptr %12, align 4
  %161 = load ptr, ptr %9, align 8
  store i32 %160, ptr %161, align 4
  br label %162

162:                                              ; preds = %159, %156
  store i32 0, ptr %6, align 4
  store i32 1, ptr %18, align 4
  br label %164

163:                                              ; preds = %144
  store i32 -1, ptr %6, align 4
  store i32 1, ptr %18, align 4
  br label %164

164:                                              ; preds = %163, %162, %151, %144
  call void @llvm.lifetime.end.p0(i64 8, ptr %16) #10
  call void @llvm.lifetime.end.p0(i64 8, ptr %15) #10
  call void @llvm.lifetime.end.p0(i64 4, ptr %14) #10
  call void @llvm.lifetime.end.p0(i64 4, ptr %13) #10
  call void @llvm.lifetime.end.p0(i64 4, ptr %12) #10
  %165 = load i32, ptr %6, align 4
  ret i32 %165
}