; Function Attrs: nofree norecurse nosync nounwind memory(argmem: readwrite) uwtable
define internal fastcc range(i32 -1, 1) i32 @name_parse(ptr noundef readonly captures(none) %0, i32 noundef %1, ptr noundef nonnull captures(none) %2, ptr noundef writeonly captures(address) %3, i32 noundef %4) unnamed_addr #13 {
  %6 = load i32, ptr %2, align 4
  %7 = sext i32 %4 to i64
  %8 = getelementptr inbounds i8, ptr %3, i64 %7
  %.not103 = icmp slt i32 %6, %1
  br i1 %.not103, label %.lr.ph, label %.thread

.lr.ph:                                           ; preds = %5, %select.unfold
  %.054107 = phi i32 [ %.155, %select.unfold ], [ -1, %5 ]
  %.058106 = phi i32 [ %.159, %select.unfold ], [ %6, %5 ]
  %.061105 = phi ptr [ %.162, %select.unfold ], [ %3, %5 ]
  %.064104 = phi i32 [ %.165, %select.unfold ], [ 0, %5 ]
  %9 = add nsw i32 %.058106, 1
  %10 = sext i32 %.058106 to i64
  %11 = getelementptr inbounds i8, ptr %0, i64 %10
  %12 = load i8, ptr %11, align 1
  %.not78 = icmp eq i8 %12, 0
  br i1 %.not78, label %40, label %13

13:                                               ; preds = %.lr.ph
  %14 = zext i8 %12 to i32
  %.not79 = icmp ult i8 %12, 64
  br i1 %.not79, label %27, label %15

15:                                               ; preds = %13
  %.not83 = icmp slt i32 %9, %1
  br i1 %.not83, label %16, label %.thread

16:                                               ; preds = %15
  %17 = sext i32 %9 to i64
  %18 = getelementptr inbounds i8, ptr %0, i64 %17
  %19 = load i8, ptr %18, align 1
  %20 = icmp slt i32 %.054107, 0
  %21 = add nsw i32 %.058106, 2
  %spec.select = select i1 %20, i32 %21, i32 %.054107
  %22 = shl nuw nsw i32 %14, 8
  %23 = and i32 %22, 16128
  %24 = zext i8 %19 to i32
  %25 = or disjoint i32 %23, %24
  %.not84 = icmp slt i32 %25, %1
  %26 = add nsw i32 %.064104, 1
  %.not85 = icmp slt i32 %.064104, %1
  %or.cond = select i1 %.not84, i1 %.not85, i1 false
  br i1 %or.cond, label %select.unfold, label %.thread

27:                                               ; preds = %13
  %.not80 = icmp eq ptr %.061105, %3
  br i1 %.not80, label %31, label %28

28:                                               ; preds = %27
  %29 = getelementptr inbounds nuw i8, ptr %.061105, i64 1
  %.not81 = icmp ult ptr %29, %8
  br i1 %.not81, label %30, label %.thread

30:                                               ; preds = %28
  store i8 46, ptr %.061105, align 1
  br label %31

31:                                               ; preds = %30, %27
  %.263 = phi ptr [ %29, %30 ], [ %3, %27 ]
  %32 = zext nneg i8 %12 to i64
  %33 = getelementptr inbounds nuw i8, ptr %.263, i64 %32
  %.not82 = icmp ult ptr %33, %8
  br i1 %.not82, label %34, label %.thread

34:                                               ; preds = %31
  %35 = add nsw i32 %9, %14
  %36 = icmp sgt i32 %35, %1
  br i1 %36, label %.thread, label %37

37:                                               ; preds = %34
  %38 = sext i32 %9 to i64
  %39 = getelementptr inbounds i8, ptr %0, i64 %38
  tail call void @llvm.memcpy.p0.p0.i64(ptr align 1 %.263, ptr align 1 %39, i64 %32, i1 false)
  br label %select.unfold

select.unfold:                                    ; preds = %16, %37
  %.165 = phi i32 [ %.064104, %37 ], [ %26, %16 ]
  %.162 = phi ptr [ %33, %37 ], [ %.061105, %16 ]
  %.159 = phi i32 [ %35, %37 ], [ %25, %16 ]
  %.155 = phi i32 [ %.054107, %37 ], [ %spec.select, %16 ]
  %.not = icmp slt i32 %.159, %1
  br i1 %.not, label %.lr.ph, label %.thread

40:                                               ; preds = %.lr.ph
  %.not86 = icmp ult ptr %.061105, %8
  br i1 %.not86, label %41, label %.thread

41:                                               ; preds = %40
  store i8 0, ptr %.061105, align 1
  %42 = icmp slt i32 %.054107, 0
  %.159..155 = select i1 %42, i32 %9, i32 %.054107
  store i32 %.159..155, ptr %2, align 4
  br label %.thread

.thread:                                          ; preds = %select.unfold, %15, %16, %28, %31, %34, %5, %40, %41
  %.3 = phi i32 [ 0, %41 ], [ -1, %40 ], [ -1, %5 ], [ -1, %34 ], [ -1, %31 ], [ -1, %28 ], [ -1, %16 ], [ -1, %15 ], [ -1, %select.unfold ]
  ret i32 %.3
}